target datalayout = "e-m:e-p270:32:32-p271:32:32-p272:64:64-i64:64-i128:128-f80:128-n8:16:32:64-S128"
target triple = "x86_64-pc-linux-gnu"

%struct.ForEachState = type { ptr, i32 }
%struct.List = type { i32, i32, i32, ptr, [0 x %union.ListCell] }
%union.ListCell = type { ptr }
%struct.Plan = type { i32, i32, double, double, double, i32, i8, i8, i8, i32, ptr, ptr, ptr, ptr, ptr, ptr, ptr }
%struct.Node = type { i32 }
%struct.TargetEntry = type { %struct.Expr, ptr, i16, ptr, i32, i32, i16, i8 }
%struct.Expr = type { i32 }
%struct.Var = type { %struct.Expr, i32, i16, i32, i32, i32, ptr, i32, i32, i32, i16, i32 }

; Function Attrs: nounwind uwtable
define internal void @set_dummy_tlist_references(ptr noundef %0, i32 noundef %1) #0 {
  %3 = alloca ptr, align 8
  %4 = alloca i32, align 4
  %5 = alloca ptr, align 8
  %6 = alloca ptr, align 8
  %7 = alloca %struct.ForEachState, align 8
  %8 = alloca i32, align 4
  %9 = alloca ptr, align 8
  %10 = alloca ptr, align 8
  %11 = alloca ptr, align 8
  store ptr %0, ptr %3, align 8
  store i32 %1, ptr %4, align 4
  call void @llvm.lifetime.start.p0(i64 8, ptr %5) #8
  call void @llvm.lifetime.start.p0(i64 8, ptr %6) #8
  store ptr null, ptr %5, align 8
  call void @llvm.lifetime.start.p0(i64 16, ptr %7) #8
  %12 = getelementptr inbounds nuw %struct.ForEachState, ptr %7, i32 0, i32 0
  %13 = load ptr, ptr %3, align 8
  %14 = getelementptr inbounds nuw %struct.Plan, ptr %13, i32 0, i32 10
  %15 = load ptr, ptr %14, align 8
  store ptr %15, ptr %12, align 8
  %16 = getelementptr inbounds nuw %struct.ForEachState, ptr %7, i32 0, i32 1
  store i32 0, ptr %16, align 8
  %17 = getelementptr i8, ptr %7, i64 12
  call void @llvm.memset.p0.i64(ptr align 4 %17, i8 0, i64 4, i1 false)
  br label %18

18:                                               ; preds = %108, %2
  %19 = getelementptr inbounds nuw %struct.ForEachState, ptr %7, i32 0, i32 0
  %20 = load ptr, ptr %19, align 8
  %21 = icmp ne ptr %20, null
  br i1 %21, label %22, label %39

22:                                               ; preds = %18
  %23 = getelementptr inbounds nuw %struct.ForEachState, ptr %7, i32 0, i32 1
  %24 = load i32, ptr %23, align 8
  %25 = getelementptr inbounds nuw %struct.ForEachState, ptr %7, i32 0, i32 0
  %26 = load ptr, ptr %25, align 8
  %27 = getelementptr inbounds nuw %struct.List, ptr %26, i32 0, i32 1
  %28 = load i32, ptr %27, align 4
  %29 = icmp slt i32 %24, %28
  br i1 %29, label %30, label %39

30:                                               ; preds = %22
  %31 = getelementptr inbounds nuw %struct.ForEachState, ptr %7, i32 0, i32 0
  %32 = load ptr, ptr %31, align 8
  %33 = getelementptr inbounds nuw %struct.List, ptr %32, i32 0, i32 3
  %34 = load ptr, ptr %33, align 8
  %35 = getelementptr inbounds nuw %struct.ForEachState, ptr %7, i32 0, i32 1
  %36 = load i32, ptr %35, align 8
  %37 = sext i32 %36 to i64
  %38 = getelementptr inbounds %union.ListCell, ptr %34, i64 %37
  store ptr %38, ptr %6, align 8
  br label %40

39:                                               ; preds = %22, %18
  store ptr null, ptr %6, align 8
  br label %40

40:                                               ; preds = %39, %30
  %41 = phi i32 [ 1, %30 ], [ 0, %39 ]
  %42 = icmp ne i32 %41, 0
  br i1 %42, label %44, label %43

43:                                               ; preds = %40
  store i32 2, ptr %8, align 4
  call void @llvm.lifetime.end.p0(i64 16, ptr %7) #8
  br label %112

44:                                               ; preds = %40
  call void @llvm.lifetime.start.p0(i64 8, ptr %9) #8
  %45 = load ptr, ptr %6, align 8
  %46 = load ptr, ptr %45, align 8
  store ptr %46, ptr %9, align 8
  call void @llvm.lifetime.start.p0(i64 8, ptr %10) #8
  %47 = load ptr, ptr %9, align 8
  %48 = getelementptr inbounds nuw %struct.TargetEntry, ptr %47, i32 0, i32 1
  %49 = load ptr, ptr %48, align 8
  store ptr %49, ptr %10, align 8
  call void @llvm.lifetime.start.p0(i64 8, ptr %11) #8
  %50 = load ptr, ptr %10, align 8
  %51 = getelementptr inbounds nuw %struct.Node, ptr %50, i32 0, i32 0
  %52 = load i32, ptr %51, align 4
  %53 = icmp eq i32 %52, 7
  br i1 %53, label %54, label %58

54:                                               ; preds = %44
  %55 = load ptr, ptr %5, align 8
  %56 = load ptr, ptr %9, align 8
  %57 = call ptr @lappend(ptr noundef %55, ptr noundef %56)
  store ptr %57, ptr %5, align 8
  store i32 4, ptr %8, align 4
  br label %105

58:                                               ; preds = %44
  %59 = load ptr, ptr %9, align 8
  %60 = getelementptr inbounds nuw %struct.TargetEntry, ptr %59, i32 0, i32 2
  %61 = load i16, ptr %60, align 8
  %62 = load ptr, ptr %10, align 8
  %63 = call i32 @exprType(ptr noundef %62)
  %64 = load ptr, ptr %10, align 8
  %65 = call i32 @exprTypmod(ptr noundef %64)
  %66 = load ptr, ptr %10, align 8
  %67 = call i32 @exprCollation(ptr noundef %66)
  %68 = call ptr @makeVar(i32 noundef -2, i16 noundef signext %61, i32 noundef %63, i32 noundef %65, i32 noundef %67, i32 noundef 0)
  store ptr %68, ptr %11, align 8
  %69 = load ptr, ptr %10, align 8
  %70 = getelementptr inbounds nuw %struct.Node, ptr %69, i32 0, i32 0
  %71 = load i32, ptr %70, align 4
  %72 = icmp eq i32 %71, 6
  br i1 %72, label %73, label %91

73:                                               ; preds = %58
  %74 = load ptr, ptr %10, align 8
  %75 = getelementptr inbounds nuw %struct.Var, ptr %74, i32 0, i32 9
  %76 = load i32, ptr %75, align 8
  %77 = icmp ugt i32 %76, 0
  br i1 %77, label %78, label %91

78:                                               ; preds = %73
  %79 = load ptr, ptr %10, align 8
  %80 = getelementptr inbounds nuw %struct.Var, ptr %79, i32 0, i32 9
  %81 = load i32, ptr %80, align 8
  %82 = load i32, ptr %4, align 4
  %83 = add i32 %81, %82
  %84 = load ptr, ptr %11, align 8
  %85 = getelementptr inbounds nuw %struct.Var, ptr %84, i32 0, i32 9
  store i32 %83, ptr %85, align 8
  %86 = load ptr, ptr %10, align 8
  %87 = getelementptr inbounds nuw %struct.Var, ptr %86, i32 0, i32 10
  %88 = load i16, ptr %87, align 4
  %89 = load ptr, ptr %11, align 8
  %90 = getelementptr inbounds nuw %struct.Var, ptr %89, i32 0, i32 10
  store i16 %88, ptr %90, align 4
  br label %96

91:                                               ; preds = %73, %58
  %92 = load ptr, ptr %11, align 8
  %93 = getelementptr inbounds nuw %struct.Var, ptr %92, i32 0, i32 9
  store i32 0, ptr %93, align 8
  %94 = load ptr, ptr %11, align 8
  %95 = getelementptr inbounds nuw %struct.Var, ptr %94, i32 0, i32 10
  store i16 0, ptr %95, align 4
  br label %96

96:                                               ; preds = %91, %78
  %97 = load ptr, ptr %9, align 8
  %98 = call ptr @flatCopyTargetEntry(ptr noundef %97)
  store ptr %98, ptr %9, align 8
  %99 = load ptr, ptr %11, align 8
  %100 = load ptr, ptr %9, align 8
  %101 = getelementptr inbounds nuw %struct.TargetEntry, ptr %100, i32 0, i32 1
  store ptr %99, ptr %101, align 8
  %102 = load ptr, ptr %5, align 8
  %103 = load ptr, ptr %9, align 8
  %104 = call ptr @lappend(ptr noundef %102, ptr noundef %103)
  store ptr %104, ptr %5, align 8
  store i32 0, ptr %8, align 4
  br label %105

105:                                              ; preds = %96, %54
  call void @llvm.lifetime.end.p0(i64 8, ptr %11) #8
  call void @llvm.lifetime.end.p0(i64 8, ptr %10) #8
  call void @llvm.lifetime.end.p0(i64 8, ptr %9) #8
  %106 = load i32, ptr %8, align 4
  switch i32 %106, label %116 [
    i32 0, label %107
    i32 4, label %108
  ]

107:                                              ; preds = %105
  br label %108

108:                                              ; preds = %107, %105
  %109 = getelementptr inbounds nuw %struct.ForEachState, ptr %7, i32 0, i32 1
  %110 = load i32, ptr %109, align 8
  %111 = add i32 %110, 1
  store i32 %111, ptr %109, align 8
  br label %18, !llvm.loop !34

112:                                              ; preds = %43
  %113 = load ptr, ptr %5, align 8
  %114 = load ptr, ptr %3, align 8
  %115 = getelementptr inbounds nuw %struct.Plan, ptr %114, i32 0, i32 10
  store ptr %113, ptr %115, align 8
  call void @llvm.lifetime.end.p0(i64 8, ptr %6) #8
  call void @llvm.lifetime.end.p0(i64 8, ptr %5) #8
  ret void

116:                                              ; preds = %105
  unreachable
}