; Function Attrs: nounwind uwtable
define internal fastcc void @set_dummy_tlist_references(ptr noundef nonnull captures(none) %0, i32 noundef %1) unnamed_addr #0 {
  %3 = getelementptr inbounds nuw i8, ptr %0, i64 48
  %4 = load ptr, ptr %3, align 8
  %5 = getelementptr inbounds nuw i8, ptr %4, i64 4
  %.not = icmp eq ptr %4, null
  br i1 %.not, label %._crit_edge, label %.lr.ph

.lr.ph:                                           ; preds = %2
  %6 = getelementptr inbounds nuw i8, ptr %4, i64 16
  %7 = load i32, ptr %5, align 4
  %8 = icmp sgt i32 %7, 0
  br i1 %8, label %.lr.ph45, label %._crit_edge

._crit_edge:                                      ; preds = %39, %.lr.ph, %2
  %.0.lcssa = phi ptr [ null, %2 ], [ null, %.lr.ph ], [ %40, %39 ]
  store ptr %.0.lcssa, ptr %3, align 8
  ret void

.lr.ph45:                                         ; preds = %.lr.ph, %39
  %.03744 = phi ptr [ %40, %39 ], [ null, %.lr.ph ]
  %indvars.iv43 = phi i64 [ %indvars.iv.next, %39 ], [ 0, %.lr.ph ]
  %9 = load ptr, ptr %6, align 8
  %10 = getelementptr inbounds nuw %union.ListCell, ptr %9, i64 %indvars.iv43
  %11 = load ptr, ptr %10, align 8
  %12 = getelementptr inbounds nuw i8, ptr %11, i64 8
  %13 = load ptr, ptr %12, align 8
  %14 = load i32, ptr %13, align 4
  %15 = icmp eq i32 %14, 7
  br i1 %15, label %39, label %16

16:                                               ; preds = %.lr.ph45
  %17 = getelementptr inbounds nuw i8, ptr %11, i64 16
  %18 = load i16, ptr %17, align 8
  %19 = tail call i32 @exprType(ptr noundef nonnull %13) #8
  %20 = tail call i32 @exprTypmod(ptr noundef nonnull %13) #8
  %21 = tail call i32 @exprCollation(ptr noundef nonnull %13) #8
  %22 = tail call ptr @makeVar(i32 noundef -2, i16 noundef signext %18, i32 noundef %19, i32 noundef %20, i32 noundef %21, i32 noundef 0) #8
  %23 = load i32, ptr %13, align 4
  %24 = icmp eq i32 %23, 6
  br i1 %24, label %25, label %33

25:                                               ; preds = %16
  %26 = getelementptr inbounds nuw i8, ptr %13, i64 40
  %27 = load i32, ptr %26, align 8
  %.not33 = icmp eq i32 %27, 0
  br i1 %.not33, label %33, label %28

28:                                               ; preds = %25
  %29 = add i32 %27, %1
  %30 = getelementptr inbounds nuw i8, ptr %22, i64 40
  store i32 %29, ptr %30, align 8
  %31 = getelementptr inbounds nuw i8, ptr %13, i64 44
  %32 = load i16, ptr %31, align 4
  br label %35

33:                                               ; preds = %25, %16
  %34 = getelementptr inbounds nuw i8, ptr %22, i64 40
  store i32 0, ptr %34, align 8
  br label %35

35:                                               ; preds = %33, %28
  %.sink = phi i16 [ 0, %33 ], [ %32, %28 ]
  %36 = getelementptr inbounds nuw i8, ptr %22, i64 44
  store i16 %.sink, ptr %36, align 4
  %37 = tail call ptr @flatCopyTargetEntry(ptr noundef nonnull %11) #8
  %38 = getelementptr inbounds nuw i8, ptr %37, i64 8
  store ptr %22, ptr %38, align 8
  br label %39

39:                                               ; preds = %.lr.ph45, %35
  %.sink42 = phi ptr [ %37, %35 ], [ %11, %.lr.ph45 ]
  %40 = tail call ptr @lappend(ptr noundef %.03744, ptr noundef %.sink42) #8
  %indvars.iv.next = add nuw nsw i64 %indvars.iv43, 1
  %41 = load i32, ptr %5, align 4
  %42 = sext i32 %41 to i64
  %43 = icmp slt i64 %indvars.iv.next, %42
  br i1 %43, label %.lr.ph45, label %._crit_edge
}